target datalayout = "e-m:e-p270:32:32-p271:32:32-p272:64:64-i64:64-i128:128-f80:128-n8:16:32:64-S128"
target triple = "x86_64-pc-linux-gnu"

%struct.ident_t = type { i32, i32, i32, i32, ptr }
%"struct.std::_Vector_base.19" = type { %"struct.std::_Vector_base<int, std::allocator<int>>::_Vector_impl" }
%"struct.std::_Vector_base<int, std::allocator<int>>::_Vector_impl" = type { %"struct.std::_Vector_base<int, std::allocator<int>>::_Vector_impl_data" }
%"struct.std::_Vector_base<int, std::allocator<int>>::_Vector_impl_data" = type { ptr, ptr, ptr }
%class.SparseMatrix = type { i8, i32, i32, ptr, ptr }
%struct.MatrixEntry = type { i32, float }

@1 = private unnamed_addr constant %struct.ident_t { i32 0, i32 514, i32 0, i32 22, ptr @0 }, align 8

; Function Attrs: noreturn nounwind uwtable
define linkonce_odr hidden void @__clang_call_terminate(ptr noundef %0) #9 comdat {
  %2 = call ptr @__cxa_begin_catch(ptr %0) #3
  call void @_ZSt9terminatev() #27
  unreachable
}

; Function Attrs: mustprogress nounwind uwtable
define linkonce_odr noundef ptr @_ZNK12SparseMatrixIfEixEi(ptr noundef nonnull align 8 dereferenceable(32) %0, i32 noundef %1) #4 comdat align 2 {
  %3 = alloca ptr, align 8
  %4 = alloca i32, align 4
  store ptr %0, ptr %3, align 8
  store i32 %1, ptr %4, align 4
  %5 = load ptr, ptr %3, align 8
  %6 = getelementptr inbounds %class.SparseMatrix, ptr %5, i32 0, i32 4
  %7 = load ptr, ptr %6, align 8
  %8 = load i32, ptr %4, align 4
  %9 = sext i32 %8 to i64
  %10 = getelementptr inbounds ptr, ptr %7, i64 %9
  %11 = load ptr, ptr %10, align 8
  ret ptr %11
}

; Function Attrs: mustprogress nounwind uwtable
define linkonce_odr noundef nonnull align 4 dereferenceable(4) ptr @_ZNKSt6vectorIiSaIiEEixEm(ptr noundef nonnull align 8 dereferenceable(24) %0, i64 noundef %1) #4 comdat align 2 {
  %3 = alloca ptr, align 8
  %4 = alloca i64, align 8
  store ptr %0, ptr %3, align 8
  store i64 %1, ptr %4, align 8
  %5 = load ptr, ptr %3, align 8
  %6 = getelementptr inbounds %"struct.std::_Vector_base.19", ptr %5, i32 0, i32 0
  %7 = getelementptr inbounds %"struct.std::_Vector_base<int, std::allocator<int>>::_Vector_impl_data", ptr %6, i32 0, i32 0
  %8 = load ptr, ptr %7, align 8
  %9 = load i64, ptr %4, align 8
  %10 = getelementptr inbounds i32, ptr %8, i64 %9
  ret ptr %10
}

; Function Attrs: mustprogress nounwind uwtable
define linkonce_odr noundef i64 @_ZNKSt6vectorIiSaIiEE4sizeEv(ptr noundef nonnull align 8 dereferenceable(24) %0) #4 comdat align 2 {
  %2 = alloca ptr, align 8
  store ptr %0, ptr %2, align 8
  %3 = load ptr, ptr %2, align 8
  %4 = getelementptr inbounds %"struct.std::_Vector_base.19", ptr %3, i32 0, i32 0
  %5 = getelementptr inbounds %"struct.std::_Vector_base<int, std::allocator<int>>::_Vector_impl_data", ptr %4, i32 0, i32 1
  %6 = load ptr, ptr %5, align 8
  %7 = getelementptr inbounds %"struct.std::_Vector_base.19", ptr %3, i32 0, i32 0
  %8 = getelementptr inbounds %"struct.std::_Vector_base<int, std::allocator<int>>::_Vector_impl_data", ptr %7, i32 0, i32 0
  %9 = load ptr, ptr %8, align 8
  %10 = ptrtoint ptr %6 to i64
  %11 = ptrtoint ptr %9 to i64
  %12 = sub i64 %10, %11
  %13 = sdiv exact i64 %12, 4
  ret i64 %13
}

; Function Attrs: norecurse nounwind uwtable
define internal void @_ZN12SparseMatrixIfE7SolveGSIfEEiRKSt6vectorIS2_IiSaIiEESaIS4_EERKS0_PKT_PSB_bi.omp_outlined(ptr noalias noundef %0, ptr noalias noundef %1, ptr noundef nonnull align 8 dereferenceable(24) %2, ptr noundef nonnull align 8 dereferenceable(32) %3, ptr noundef nonnull align 8 dereferenceable(8) %4, ptr noundef nonnull align 8 dereferenceable(8) %5) #17 personality ptr @__gxx_personality_v0 {
  %7 = alloca ptr, align 8
  %8 = alloca ptr, align 8
  %9 = alloca ptr, align 8
  %10 = alloca ptr, align 8
  %11 = alloca ptr, align 8
  %12 = alloca ptr, align 8
  %13 = alloca ptr, align 8
  %14 = alloca ptr, align 8
  %15 = alloca i32, align 4
  %16 = alloca i32, align 4
  %17 = alloca i32, align 4
  %18 = alloca i32, align 4
  %19 = alloca i32, align 4
  %20 = alloca i32, align 4
  %21 = alloca i32, align 4
  %22 = alloca i32, align 4
  %23 = alloca i32, align 4
  %24 = alloca i32, align 4
  %25 = alloca float, align 4
  %26 = alloca ptr, align 8
  %27 = alloca ptr, align 8
  %28 = alloca ptr, align 8
  %29 = alloca float, align 4
  store ptr %0, ptr %7, align 8
  store ptr %1, ptr %8, align 8
  store ptr %2, ptr %9, align 8
  store ptr %3, ptr %10, align 8
  store ptr %4, ptr %11, align 8
  store ptr %5, ptr %12, align 8
  %30 = load ptr, ptr %9, align 8
  %31 = load ptr, ptr %10, align 8
  %32 = load ptr, ptr %11, align 8
  %33 = load ptr, ptr %12, align 8
  store ptr %30, ptr %13, align 8
  store ptr %31, ptr %14, align 8
  %34 = load ptr, ptr %13, align 8
  %35 = call noundef i64 @_ZNKSt6vectorIiSaIiEE4sizeEv(ptr noundef nonnull align 8 dereferenceable(24) %34) #3
  %36 = trunc i64 %35 to i32
  store i32 %36, ptr %16, align 4
  %37 = load i32, ptr %16, align 4
  %38 = sub nsw i32 %37, 0
  %39 = sdiv i32 %38, 1
  %40 = sub nsw i32 %39, 1
  store i32 %40, ptr %17, align 4
  store i32 0, ptr %18, align 4
  %41 = load i32, ptr %16, align 4
  %42 = icmp slt i32 0, %41
  br i1 %42, label %43, label %140

43:                                               ; preds = %6
  store i32 0, ptr %19, align 4
  %44 = load i32, ptr %17, align 4
  store i32 %44, ptr %20, align 4
  store i32 1, ptr %21, align 4
  store i32 0, ptr %22, align 4
  %45 = load ptr, ptr %7, align 8
  %46 = load i32, ptr %45, align 4
  call void @__kmpc_for_static_init_4(ptr @1, i32 %46, i32 34, ptr %22, ptr %19, ptr %20, ptr %21, i32 1, i32 1)
  %47 = load i32, ptr %20, align 4
  %48 = load i32, ptr %17, align 4
  %49 = icmp sgt i32 %47, %48
  br i1 %49, label %50, label %52

50:                                               ; preds = %43
  %51 = load i32, ptr %17, align 4
  br label %54

52:                                               ; preds = %43
  %53 = load i32, ptr %20, align 4
  br label %54

54:                                               ; preds = %52, %50
  %55 = phi i32 [ %51, %50 ], [ %53, %52 ]
  store i32 %55, ptr %20, align 4
  %56 = load i32, ptr %19, align 4
  store i32 %56, ptr %15, align 4
  br label %57

57:                                               ; preds = %133, %54
  %58 = load i32, ptr %15, align 4
  %59 = load i32, ptr %20, align 4
  %60 = icmp sle i32 %58, %59
  br i1 %60, label %61, label %136

61:                                               ; preds = %57
  %62 = load i32, ptr %15, align 4
  %63 = mul nsw i32 %62, 1
  %64 = add nsw i32 0, %63
  store i32 %64, ptr %23, align 4
  %65 = load ptr, ptr %13, align 8
  %66 = load i32, ptr %23, align 4
  %67 = sext i32 %66 to i64
  %68 = call noundef nonnull align 4 dereferenceable(4) ptr @_ZNKSt6vectorIiSaIiEEixEm(ptr noundef nonnull align 8 dereferenceable(24) %65, i64 noundef %67) #3
  %69 = load i32, ptr %68, align 4
  store i32 %69, ptr %24, align 4
  %70 = load ptr, ptr %14, align 8
  %71 = load i32, ptr %24, align 4
  %72 = invoke noundef ptr @_ZNK12SparseMatrixIfEixEi(ptr noundef nonnull align 8 dereferenceable(32) %70, i32 noundef %71)
          to label %73 unwind label %141

73:                                               ; preds = %61
  %74 = getelementptr inbounds %struct.MatrixEntry, ptr %72, i64 0
  %75 = getelementptr inbounds %struct.MatrixEntry, ptr %74, i32 0, i32 1
  %76 = load float, ptr %75, align 4
  store float %76, ptr %25, align 4
  %77 = load float, ptr %25, align 4
  %78 = fcmp une float %77, 0.000000e+00
  br i1 %78, label %79, label %131

79:                                               ; preds = %73
  %80 = load ptr, ptr %14, align 8
  %81 = load i32, ptr %24, align 4
  %82 = invoke noundef ptr @_ZNK12SparseMatrixIfEixEi(ptr noundef nonnull align 8 dereferenceable(32) %80, i32 noundef %81)
          to label %83 unwind label %141

83:                                               ; preds = %79
  store ptr %82, ptr %26, align 8
  %84 = load ptr, ptr %26, align 8
  %85 = load ptr, ptr %14, align 8
  %86 = getelementptr inbounds %class.SparseMatrix, ptr %85, i32 0, i32 3
  %87 = load ptr, ptr %86, align 8
  %88 = load i32, ptr %24, align 4
  %89 = sext i32 %88 to i64
  %90 = getelementptr inbounds i32, ptr %87, i64 %89
  %91 = load i32, ptr %90, align 4
  %92 = sext i32 %91 to i64
  %93 = getelementptr inbounds %struct.MatrixEntry, ptr %84, i64 %92
  store ptr %93, ptr %27, align 8
  %94 = load ptr, ptr %26, align 8
  %95 = getelementptr inbounds %struct.MatrixEntry, ptr %94, i32 1
  store ptr %95, ptr %26, align 8
  %96 = load ptr, ptr %32, align 8
  %97 = load i32, ptr %24, align 4
  %98 = sext i32 %97 to i64
  %99 = getelementptr inbounds float, ptr %96, i64 %98
  %100 = load float, ptr %99, align 4
  store float %100, ptr %29, align 4
  %101 = load ptr, ptr %26, align 8
  store ptr %101, ptr %28, align 8
  br label %102

102:                                              ; preds = %120, %83
  %103 = load ptr, ptr %28, align 8
  %104 = load ptr, ptr %27, align 8
  %105 = icmp ne ptr %103, %104
  br i1 %105, label %106, label %123

106:                                              ; preds = %102
  %107 = load ptr, ptr %33, align 8
  %108 = load ptr, ptr %28, align 8
  %109 = getelementptr inbounds %struct.MatrixEntry, ptr %108, i32 0, i32 0
  %110 = load i32, ptr %109, align 4
  %111 = sext i32 %110 to i64
  %112 = getelementptr inbounds float, ptr %107, i64 %111
  %113 = load float, ptr %112, align 4
  %114 = load ptr, ptr %28, align 8
  %115 = getelementptr inbounds %struct.MatrixEntry, ptr %114, i32 0, i32 1
  %116 = load float, ptr %115, align 4
  %117 = load float, ptr %29, align 4
  %118 = fneg float %113
  %119 = call float @llvm.fmuladd.f32(float %118, float %116, float %117)
  store float %119, ptr %29, align 4
  br label %120

120:                                              ; preds = %106
  %121 = load ptr, ptr %28, align 8
  %122 = getelementptr inbounds %struct.MatrixEntry, ptr %121, i32 1
  store ptr %122, ptr %28, align 8
  br label %102, !llvm.loop !694

123:                                              ; preds = %102
  %124 = load float, ptr %29, align 4
  %125 = load float, ptr %25, align 4
  %126 = fdiv float %124, %125
  %127 = load ptr, ptr %33, align 8
  %128 = load i32, ptr %24, align 4
  %129 = sext i32 %128 to i64
  %130 = getelementptr inbounds float, ptr %127, i64 %129
  store float %126, ptr %130, align 4
  br label %131

131:                                              ; preds = %123, %73
  br label %132

132:                                              ; preds = %131
  br label %133

133:                                              ; preds = %132
  %134 = load i32, ptr %15, align 4
  %135 = add nsw i32 %134, 1
  store i32 %135, ptr %15, align 4
  br label %57

136:                                              ; preds = %57
  br label %137

137:                                              ; preds = %136
  %138 = load ptr, ptr %7, align 8
  %139 = load i32, ptr %138, align 4
  call void @__kmpc_for_static_fini(ptr @1, i32 %139)
  br label %140

140:                                              ; preds = %137, %6
  ret void

141:                                              ; preds = %79, %61
  %142 = landingpad { ptr, i32 }
          catch ptr null
  %143 = extractvalue { ptr, i32 } %142, 0
  call void @__clang_call_terminate(ptr %143) #27
  unreachable
}