; Function Attrs: norecurse nounwind uwtable
define internal void @_ZN12SparseMatrixIfE7SolveGSIfEEiRKSt6vectorIS2_IiSaIiEESaIS4_EERKS0_PKT_PSB_bi.omp_outlined(ptr noalias nocapture noundef readonly %0, ptr noalias nocapture readnone %1, ptr nocapture noundef nonnull readonly align 8 dereferenceable(24) %2, ptr nocapture noundef nonnull readonly align 8 dereferenceable(32) %3, ptr nocapture noundef nonnull readonly align 8 dereferenceable(8) %4, ptr nocapture noundef nonnull readonly align 8 dereferenceable(8) %5) #23 personality ptr @__gxx_personality_v0 {
  %7 = alloca i32, align 4
  %8 = alloca i32, align 4
  %9 = alloca i32, align 4
  %10 = alloca i32, align 4
  %11 = getelementptr inbounds i8, ptr %2, i64 8
  %12 = load ptr, ptr %11, align 8
  %13 = load ptr, ptr %2, align 8
  %14 = ptrtoint ptr %12 to i64
  %15 = ptrtoint ptr %13 to i64
  %16 = sub i64 %14, %15
  %17 = lshr exact i64 %16, 2
  %18 = trunc i64 %17 to i32
  %19 = icmp sgt i32 %18, 0
  br i1 %19, label %20, label %64

20:                                               ; preds = %6
  %21 = add nsw i32 %18, -1
  store i32 0, ptr %7, align 4
  store i32 %21, ptr %8, align 4
  store i32 1, ptr %9, align 4
  store i32 0, ptr %10, align 4
  %22 = load i32, ptr %0, align 4
  call void @__kmpc_for_static_init_4(ptr nonnull @1, i32 %22, i32 34, ptr nonnull %10, ptr nonnull %7, ptr nonnull %8, ptr nonnull %9, i32 1, i32 1)
  %23 = load i32, ptr %8, align 4
  %24 = call i32 @llvm.smin.i32(i32 %23, i32 %21)
  store i32 %24, ptr %8, align 4
  %25 = load i32, ptr %7, align 4
  %.not45 = icmp sgt i32 %25, %24
  br i1 %.not45, label %._crit_edge49, label %.lr.ph48

.lr.ph48:                                         ; preds = %20
  %26 = getelementptr inbounds i8, ptr %3, i64 24
  %27 = getelementptr inbounds i8, ptr %3, i64 16
  %28 = sext i32 %25 to i64
  br label %29

29:                                               ; preds = %.lr.ph48, %61
  %30 = phi i32 [ %24, %.lr.ph48 ], [ %62, %61 ]
  %indvars.iv = phi i64 [ %28, %.lr.ph48 ], [ %indvars.iv.next, %61 ]
  %31 = load ptr, ptr %2, align 8
  %32 = getelementptr inbounds i32, ptr %31, i64 %indvars.iv
  %33 = load i32, ptr %32, align 4
  %34 = load ptr, ptr %26, align 8
  %35 = sext i32 %33 to i64
  %36 = getelementptr inbounds ptr, ptr %34, i64 %35
  %37 = load ptr, ptr %36, align 8
  %38 = getelementptr inbounds i8, ptr %37, i64 4
  %39 = load float, ptr %38, align 4
  %40 = fcmp une float %39, 0.000000e+00
  br i1 %40, label %41, label %61

41:                                               ; preds = %29
  %42 = load ptr, ptr %27, align 8
  %43 = getelementptr inbounds i32, ptr %42, i64 %35
  %44 = load i32, ptr %43, align 4
  %45 = sext i32 %44 to i64
  %.idx = shl nsw i64 %45, 3
  %46 = getelementptr inbounds i8, ptr %37, i64 %.idx
  %47 = load ptr, ptr %4, align 8
  %48 = getelementptr inbounds float, ptr %47, i64 %35
  %49 = load float, ptr %48, align 4
  %.not3941 = icmp eq i32 %44, 1
  %.pre = load ptr, ptr %5, align 8
  br i1 %.not3941, label %._crit_edge, label %.lr.ph

.lr.ph:                                           ; preds = %41
  %.03640 = getelementptr inbounds i8, ptr %37, i64 8
  br label %50

50:                                               ; preds = %.lr.ph, %50
  %.03644 = phi ptr [ %.03640, %.lr.ph ], [ %.036, %50 ]
  %.043 = phi float [ %49, %.lr.ph ], [ %58, %50 ]
  %.pn42 = phi ptr [ %37, %.lr.ph ], [ %.03644, %50 ]
  %51 = load i32, ptr %.03644, align 4
  %52 = sext i32 %51 to i64
  %53 = getelementptr inbounds float, ptr %.pre, i64 %52
  %54 = load float, ptr %53, align 4
  %55 = getelementptr inbounds i8, ptr %.pn42, i64 12
  %56 = load float, ptr %55, align 4
  %57 = fneg float %54
  %58 = call float @llvm.fmuladd.f32(float %57, float %56, float %.043)
  %.036 = getelementptr inbounds i8, ptr %.03644, i64 8
  %.not39 = icmp eq ptr %.036, %46
  br i1 %.not39, label %._crit_edge, label %50, !llvm.loop !818

._crit_edge:                                      ; preds = %50, %41
  %.0.lcssa = phi float [ %49, %41 ], [ %58, %50 ]
  %59 = fdiv float %.0.lcssa, %39
  %60 = getelementptr inbounds float, ptr %.pre, i64 %35
  store float %59, ptr %60, align 4
  %.pre51 = load i32, ptr %8, align 4
  br label %61

61:                                               ; preds = %._crit_edge, %29
  %62 = phi i32 [ %.pre51, %._crit_edge ], [ %30, %29 ]
  %indvars.iv.next = add nsw i64 %indvars.iv, 1
  %63 = sext i32 %62 to i64
  %.not.not = icmp slt i64 %indvars.iv, %63
  br i1 %.not.not, label %29, label %._crit_edge49

._crit_edge49:                                    ; preds = %61, %20
  call void @__kmpc_for_static_fini(ptr nonnull @1, i32 %22)
  br label %64

64:                                               ; preds = %._crit_edge49, %6
  ret void
}